; Function Attrs: mustprogress uwtable
define hidden noundef i64 @_ZNK3sat12local_search16constraint_valueERKNS0_10constraintE(ptr noundef nonnull readonly align 8 captures(none) dereferenceable(232) %0, ptr noundef nonnull readonly align 8 captures(none) dereferenceable(32) %1) local_unnamed_addr #3 align 2 {
  %3 = getelementptr inbounds nuw i8, ptr %1, i64 24
  %4 = load ptr, ptr %3, align 8, !tbaa !15
  %5 = icmp eq ptr %4, null
  br i1 %5, label %._crit_edge, label %_ZNK3sat12local_search10constraint3endEv.exit

_ZNK3sat12local_search10constraint3endEv.exit:    ; preds = %2
  %6 = getelementptr inbounds i8, ptr %4, i64 -4
  %7 = load i32, ptr %6, align 4, !tbaa !13
  %8 = zext i32 %7 to i64
  %9 = getelementptr inbounds nuw %"class.sat::literal", ptr %4, i64 %8
  %.not15 = icmp eq i32 %7, 0
  br i1 %.not15, label %._crit_edge, label %.lr.ph

.lr.ph:                                           ; preds = %_ZNK3sat12local_search10constraint3endEv.exit
  %10 = getelementptr inbounds nuw i8, ptr %0, i64 40
  br label %11

._crit_edge:                                      ; preds = %41, %2, %_ZNK3sat12local_search10constraint3endEv.exit
  %.0.lcssa = phi i64 [ 0, %_ZNK3sat12local_search10constraint3endEv.exit ], [ 0, %2 ], [ %.1, %41 ]
  ret i64 %.0.lcssa

11:                                               ; preds = %.lr.ph, %41
  %.017 = phi i64 [ 0, %.lr.ph ], [ %.1, %41 ]
  %.01316 = phi ptr [ %4, %.lr.ph ], [ %42, %41 ]
  %.sroa.02.0.copyload = load i32, ptr %.01316, align 4, !tbaa !13
  %12 = lshr i32 %.sroa.02.0.copyload, 1
  %13 = load ptr, ptr %10, align 8, !tbaa !49
  %14 = zext nneg i32 %12 to i64
  %15 = getelementptr inbounds nuw %"struct.sat::local_search::var_info", ptr %13, i64 %14
  %16 = load i8, ptr %15, align 8, !tbaa !54, !range !7, !noundef !8
  %17 = trunc nuw i8 %16 to i1
  %18 = and i32 %.sroa.02.0.copyload, 1
  %19 = icmp ne i32 %18, 0
  %20 = xor i1 %19, %17
  br i1 %20, label %21, label %41

21:                                               ; preds = %11
  %22 = xor i32 %18, 1
  %23 = zext nneg i32 %22 to i64
  %24 = getelementptr inbounds nuw %"struct.sat::local_search::var_info", ptr %13, i64 %14, i32 10, i64 %23
  %25 = load ptr, ptr %24, align 8, !tbaa !68
  %26 = icmp eq ptr %25, null
  br i1 %26, label %._crit_edge.i, label %_ZNK6vectorIN3sat12local_search7pbcoeffELb0EjE3endEv.exit.i

_ZNK6vectorIN3sat12local_search7pbcoeffELb0EjE3endEv.exit.i: ; preds = %21
  %27 = getelementptr inbounds i8, ptr %25, i64 -4
  %28 = load i32, ptr %27, align 4, !tbaa !13
  %29 = zext i32 %28 to i64
  %30 = getelementptr inbounds nuw %"struct.sat::local_search::pbcoeff", ptr %25, i64 %29
  %.not24.i = icmp eq i32 %28, 0
  br i1 %.not24.i, label %._crit_edge.i, label %.lr.ph.i

.lr.ph.i:                                         ; preds = %_ZNK6vectorIN3sat12local_search7pbcoeffELb0EjE3endEv.exit.i
  %31 = load i32, ptr %1, align 8, !tbaa !107
  br label %32

32:                                               ; preds = %34, %.lr.ph.i
  %.01425.i = phi ptr [ %25, %.lr.ph.i ], [ %35, %34 ]
  %33 = load i32, ptr %.01425.i, align 4, !tbaa !79
  %.not15.i = icmp eq i32 %33, %31
  br i1 %.not15.i, label %36, label %34

34:                                               ; preds = %32
  %35 = getelementptr inbounds nuw i8, ptr %.01425.i, i64 8
  %.not.i = icmp eq ptr %35, %30
  br i1 %.not.i, label %._crit_edge.i, label %32

36:                                               ; preds = %32
  %37 = getelementptr inbounds nuw i8, ptr %.01425.i, i64 4
  %38 = load i32, ptr %37, align 4, !tbaa !81
  %39 = zext i32 %38 to i64
  br label %_ZNK3sat12local_search16constraint_coeffERKNS0_10constraintENS_7literalE.exit

._crit_edge.i:                                    ; preds = %34, %_ZNK6vectorIN3sat12local_search7pbcoeffELb0EjE3endEv.exit.i, %21
  tail call void @_Z26notify_assertion_violationPKciS0_(ptr noundef nonnull @.str.1, i32 noundef 257, ptr noundef nonnull @.str.11)
  tail call void @_Z18invoke_exit_actionj(i32 noundef 114)
  br label %_ZNK3sat12local_search16constraint_coeffERKNS0_10constraintENS_7literalE.exit

_ZNK3sat12local_search16constraint_coeffERKNS0_10constraintENS_7literalE.exit: ; preds = %36, %._crit_edge.i
  %.3.i = phi i64 [ %39, %36 ], [ 0, %._crit_edge.i ]
  %40 = add i64 %.3.i, %.017
  br label %41

41:                                               ; preds = %_ZNK3sat12local_search16constraint_coeffERKNS0_10constraintENS_7literalE.exit, %11
  %.1 = phi i64 [ %40, %_ZNK3sat12local_search16constraint_coeffERKNS0_10constraintENS_7literalE.exit ], [ %.017, %11 ]
  %42 = getelementptr inbounds nuw i8, ptr %.01316, i64 4
  %.not = icmp eq ptr %42, %9
  br i1 %.not, label %._crit_edge, label %11
}